target datalayout = "e-m:e-p270:32:32-p271:32:32-p272:64:64-i64:64-i128:128-f80:128-n8:16:32:64-S128"
target triple = "x86_64-pc-linux-gnu"

%"class.toku::keyrange" = type <{ %struct.__toku_dbt, %struct.__toku_dbt, ptr, ptr, i8, [7 x i8] }>
%struct.__toku_dbt = type { ptr, i64, i64, i32 }
%"class.toku::concurrent_tree::locked_keyrange" = type { ptr, %"class.toku::keyrange", ptr }

; Function Attrs: mustprogress uwtable
define void @_ZN4toku15concurrent_tree15locked_keyrange6insertERKNS_8keyrangeEmb(ptr noundef nonnull align 8 dereferenceable(104) %0, ptr noundef nonnull align 8 dereferenceable(81) %1, i64 noundef %2, i1 noundef zeroext %3) #0 align 2 {
  %5 = alloca ptr, align 8
  %6 = alloca ptr, align 8
  %7 = alloca i64, align 8
  %8 = alloca i8, align 1
  store ptr %0, ptr %5, align 8, !tbaa !11
  store ptr %1, ptr %6, align 8, !tbaa !30
  store i64 %2, ptr %7, align 8, !tbaa !26
  %9 = zext i1 %3 to i8
  store i8 %9, ptr %8, align 1, !tbaa !29
  %10 = load ptr, ptr %5, align 8
  %11 = getelementptr inbounds nuw %"class.toku::concurrent_tree::locked_keyrange", ptr %10, i32 0, i32 2
  %12 = load ptr, ptr %11, align 8, !tbaa !23
  %13 = call noundef zeroext i1 @_ZN4toku8treenode8is_emptyEv(ptr noundef nonnull align 8 dereferenceable(202) %12)
  br i1 %13, label %14, label %21

14:                                               ; preds = %4
  %15 = getelementptr inbounds nuw %"class.toku::concurrent_tree::locked_keyrange", ptr %10, i32 0, i32 2
  %16 = load ptr, ptr %15, align 8, !tbaa !23
  %17 = load ptr, ptr %6, align 8, !tbaa !30
  %18 = load i64, ptr %7, align 8, !tbaa !26
  %19 = load i8, ptr %8, align 1, !tbaa !29, !range !32, !noundef !33
  %20 = trunc i8 %19 to i1
  call void @_ZN4toku8treenode19set_range_and_txnidERKNS_8keyrangeEmb(ptr noundef nonnull align 8 dereferenceable(202) %16, ptr noundef nonnull align 8 dereferenceable(81) %17, i64 noundef %18, i1 noundef zeroext %20)
  br label %29

21:                                               ; preds = %4
  %22 = getelementptr inbounds nuw %"class.toku::concurrent_tree::locked_keyrange", ptr %10, i32 0, i32 2
  %23 = load ptr, ptr %22, align 8, !tbaa !23
  %24 = load ptr, ptr %6, align 8, !tbaa !30
  %25 = load i64, ptr %7, align 8, !tbaa !26
  %26 = load i8, ptr %8, align 1, !tbaa !29, !range !32, !noundef !33
  %27 = trunc i8 %26 to i1
  %28 = call noundef zeroext i1 @_ZN4toku8treenode6insertERKNS_8keyrangeEmb(ptr noundef nonnull align 8 dereferenceable(202) %23, ptr noundef nonnull align 8 dereferenceable(81) %24, i64 noundef %25, i1 noundef zeroext %27)
  br label %29

29:                                               ; preds = %21, %14
  ret void
}