; Function Attrs: mustprogress uwtable
define void @_ZN4toku15concurrent_tree15locked_keyrange6insertERKNS_8keyrangeEmb(ptr noundef nonnull readonly align 8 captures(none) dereferenceable(104) %0, ptr noundef nonnull align 8 dereferenceable(81) %1, i64 noundef %2, i1 noundef zeroext %3) local_unnamed_addr #0 align 2 {
  %5 = getelementptr inbounds nuw i8, ptr %0, i64 96
  %6 = load ptr, ptr %5, align 8, !tbaa !17
  %7 = tail call noundef zeroext i1 @_ZN4toku8treenode8is_emptyEv(ptr noundef nonnull align 8 dereferenceable(202) %6)
  %8 = load ptr, ptr %5, align 8, !tbaa !17
  br i1 %7, label %9, label %10

9:                                                ; preds = %4
  tail call void @_ZN4toku8treenode19set_range_and_txnidERKNS_8keyrangeEmb(ptr noundef nonnull align 8 dereferenceable(202) %8, ptr noundef nonnull align 8 dereferenceable(81) %1, i64 noundef %2, i1 noundef zeroext %3)
  br label %12

10:                                               ; preds = %4
  %11 = tail call noundef zeroext i1 @_ZN4toku8treenode6insertERKNS_8keyrangeEmb(ptr noundef nonnull align 8 dereferenceable(202) %8, ptr noundef nonnull align 8 dereferenceable(81) %1, i64 noundef %2, i1 noundef zeroext %3)
  br label %12

12:                                               ; preds = %10, %9
  ret void
}